(dp1
Vimport audiere
p2
I583
sVurl = 'file:///media/Radamanthys/Downloads/Nueva%20carpeta%20%283%29/Nueva%20carpetas/C%C3%B3mo%20validar%20un%20formulario%20utilizando%20PHP%20y%20Javascript%20%28jQuery%29%20_%20Web.Ontuts.htm'
p3
I487
sVa.item.__doc__
p4
I146
sVrandom.randint(0,3)
p5
I530
sVu.groups.add.__doc__
p6
I610
s.